(dp0
S'cookies'
p1
(dp2
S'wxloadtime'
p3
S'1501755640'
p4
sS'webwx_data_ticket'
p5
S'gSfBu7PrngkdZ9btZvcM5evS'
p6
sS'wxuin'
p7
S'766157560'
p8
sS'login_frequency'
p9
S'2'
p10
sS'MM_WX_NOTIFY_STATE'
p11
S'1'
p12
sS'MM_WX_SOUND_STATE'
p13
g12
sS'webwx_auth_ticket'
p14
S'CIsBEIrIm6IMGoAB/SViUPqVpE/M35YV6z32Dv5fjlqzdbWYjS9NIAlXT9mAMmzCgfcGjhFY7bIbFAdDPOZ6IOUkyGeXQ0/L509DmE64l8cneDiQwFgfkQVAnfzrx+nWDkljucxOm/6GsUqg+vjCVrnYCUodAN2pjt+DVw9Y6dXtuCffsFwaNgCo+Zs='
p15
sS'last_wxuin'
p16
S'3421359829'
p17
sS'webwxuvid'
p18
S'8f90492e582e2ccc1b4b8ed554d2d46b9856a59f14b38b66dc017599f787f5d26928889225919c5065014dfcbad95f62'
p19
sS'wxpluginkey'
p20
S'1501732064'
p21
sS'wxsid'
p22
S'uQ52t5c0xB4yO/3j'
p23
sS'mm_lang'
p24
S'zh_CN'
p25
ssS'version'
p26
S'1.3.9'
p27
sS'storage'
p28
(dp29
S'userName'
p30
V
p31
sS'lastInputUserName'
p32
NsS'memberList'
p33
ccopy_reg
_reconstructor
p34
(citchat.storage.templates
ContactList
p35
c__builtin__
list
p36
(lp37
g34
(citchat.storage.templates
User
p38
c__builtin__
dict
p39
(dp40
S'UserName'
p41
g31
sS'City'
p42
S''
p43
sS'DisplayName'
p44
g43
sS'UniFriend'
p45
I0
sS'OwnerUin'
p46
I0
sS'MemberList'
p47
g34
(g35
g36
(lp48
tp49
Rp50
I1
bsS'PYQuanPin'
p51
g31
sS'RemarkPYInitial'
p52
g31
sS'Uin'
p53
I0
sS'AppAccountFlag'
p54
I0
sS'VerifyFlag'
p55
I0
sS'Province'
p56
g43
sS'KeyWord'
p57
g43
sS'RemarkName'
p58
g31
sS'PYInitial'
p59
g31
sS'ChatRoomId'
p60
I0
sS'HideInputBarFlag'
p61
I0
sVHeadImgFlag
p62
I0
sS'EncryChatRoomId'
p63
g43
sS'AttrStatus'
p64
I0
sS'SnsFlag'
p65
I0
sS'MemberCount'
p66
I0
sVWebWxPluginSwitch
p67
I0
sS'Alias'
p68
g43
sS'Signature'
p69
g31
sS'ContactFlag'
p70
I0
sS'NickName'
p71
g31
sS'RemarkPYQuanPin'
p72
g31
sS'HeadImgUrl'
p73
g31
sS'Sex'
p74
I0
sS'StarFriend'
p75
I0
sS'Statues'
p76
I0
stp77
Rp78
I1
batp79
Rp80
I1
bsS'chatroomList'
p81
g34
(g35
g36
(lp82
tp83
Rp84
I1
bsS'nickName'
p85
g31
sS'mpList'
p86
g34
(g35
g36
(lp87
tp88
Rp89
I1
bssS'loginInfo'
p90
(dp91
S'SyncKey'
p92
(dp93
VCount
p94
I0
sVList
p95
(lp96
ssS'syncUrl'
p97
S'https://webpush.wx2.qq.com/cgi-bin/mmwebwx-bin'
p98
sS'skey'
p99
V@crypt_6236d663_77f73ef91a8808f6b1a0144d54280a4b
p100
sS'wxuin'
p101
V766157560
p102
sS'synckey'
p103
g43
sS'url'
p104
Vhttps://wx2.qq.com/cgi-bin/mmwebwx-bin
p105
sS'pass_ticket'
p106
VkHbICCp%2Fge%2FGtw4%2Bbli8tuf9hjv8gP4yxi1aeKx3ulQK6BnUTvNtFNS2c7%2Blnuii
p107
sS'wxsid'
p108
VuQ52t5c0xB4yO/3j
p109
sS'BaseRequest'
p110
(dp111
g53
g102
sS'Skey'
p112
g100
sS'DeviceID'
p113
g107
sS'Sid'
p114
g109
ssS'User'
p115
g34
(g38
g39
(dp116
g41
g31
sg42
g43
sg44
g43
sg45
I0
sg47
g50
sg51
g31
sg52
g31
sg74
I0
sg54
I0
sg55
I0
sg56
g43
sg57
g43
sg58
g31
sg59
g31
sg60
I0
sg61
I0
sg62
I0
sg63
g43
sg64
I0
sg67
I0
sg65
I0
sg66
I0
sg46
I0
sg68
g43
sg69
g31
sg70
I0
sg71
g31
sg72
g31
sg73
g31
sg53
I0
sg75
I0
sg76
I0
stp117
Rp118
I1
bsS'fileUrl'
p119
S'https://file.wx2.qq.com/cgi-bin/mmwebwx-bin'
p120
sS'InviteStartCount'
p121
I0
sS'deviceid'
p122
S'e347339858628516'
p123
ss.